; Function Attrs: nounwind uwtable
define dso_local i32 @attnumCollationId(ptr noundef readonly captures(none) %0, i32 noundef %1) local_unnamed_addr #0 {
  %3 = icmp slt i32 %1, 1
  br i1 %3, label %21, label %4

4:                                                ; preds = %2
  %5 = getelementptr inbounds nuw i8, ptr %0, i64 64
  %6 = load ptr, ptr %5, align 8
  %7 = load i32, ptr %6, align 8
  %8 = icmp sgt i32 %1, %7
  br i1 %8, label %9, label %12

9:                                                ; preds = %4
  %10 = tail call zeroext i1 @errstart_cold(i32 noundef 21, ptr noundef null) #13
  tail call void @llvm.assume(i1 %10)
  %11 = tail call i32 (ptr, ...) @errmsg_internal(ptr noundef nonnull @.str.50, i32 noundef %1) #11
  tail call void @errfinish(ptr noundef nonnull @.str.1, i32 noundef 3689, ptr noundef nonnull @__func__.attnumCollationId) #11
  unreachable

12:                                               ; preds = %4
  %13 = zext nneg i32 %7 to i64
  %14 = shl nuw nsw i64 %13, 4
  %15 = getelementptr i8, ptr %6, i64 %14
  %16 = getelementptr i8, ptr %15, i64 24
  %17 = zext nneg i32 %1 to i64
  %18 = getelementptr %struct.FormData_pg_attribute, ptr %16, i64 %17
  %19 = getelementptr i8, ptr %18, i64 -4
  %20 = load i32, ptr %19, align 4
  br label %21

21:                                               ; preds = %2, %12
  %.0 = phi i32 [ %20, %12 ], [ 0, %2 ]
  ret i32 %.0
}